target datalayout = "e-m:e-p270:32:32-p271:32:32-p272:64:64-i64:64-i128:128-f80:128-n8:16:32:64-S128"
target triple = "x86_64-pc-linux-gnu"

%struct.Aig_RMan_t_ = type { i32, ptr, i32, ptr, i32, ptr, ptr, [128 x i32], [128 x i32], [128 x i32], [128 x i32], [24 x %struct.Aig_VSig_t_], [12 x i8], [12 x i8], [13 x i32], i32, i32, i32, i32, i32 }
%struct.Aig_VSig_t_ = type { i32, [12 x i32] }

@s_pRMan = internal global ptr null, align 8
@.str.8 = private unnamed_addr constant [15 x i8] c"aiglib%02d.aig\00", align 1

; Function Attrs: nounwind uwtable
define void @Aig_RManQuit() #0 {
  %1 = alloca [20 x i8], align 16
  %2 = alloca i32, align 4
  call void @llvm.lifetime.start.p0(i64 20, ptr %1) #10
  %3 = load ptr, ptr @s_pRMan, align 8, !tbaa !3
  %4 = icmp eq ptr %3, null
  br i1 %4, label %5, label %6

5:                                                ; preds = %0
  store i32 1, ptr %2, align 4
  br label %17

6:                                                ; preds = %0
  %7 = getelementptr inbounds [20 x i8], ptr %1, i64 0, i64 0
  %8 = load ptr, ptr @s_pRMan, align 8, !tbaa !3
  %9 = getelementptr inbounds nuw %struct.Aig_RMan_t_, ptr %8, i32 0, i32 0
  %10 = load i32, ptr %9, align 8, !tbaa !8
  %11 = call i32 (ptr, ptr, ...) @sprintf(ptr noundef %7, ptr noundef @.str.8, i32 noundef %10) #10
  %12 = load ptr, ptr @s_pRMan, align 8, !tbaa !3
  %13 = getelementptr inbounds nuw %struct.Aig_RMan_t_, ptr %12, i32 0, i32 1
  %14 = load ptr, ptr %13, align 8, !tbaa !15
  %15 = getelementptr inbounds [20 x i8], ptr %1, i64 0, i64 0
  call void @Ioa_WriteAiger(ptr noundef %14, ptr noundef %15, i32 noundef 0, i32 noundef 1)
  %16 = load ptr, ptr @s_pRMan, align 8, !tbaa !3
  call void @Aig_RManStop(ptr noundef %16)
  store ptr null, ptr @s_pRMan, align 8, !tbaa !3
  store i32 0, ptr %2, align 4
  br label %17

17:                                               ; preds = %6, %5
  call void @llvm.lifetime.end.p0(i64 20, ptr %1) #10
  %18 = load i32, ptr %2, align 4
  switch i32 %18, label %20 [
    i32 0, label %19
    i32 1, label %19
  ]

19:                                               ; preds = %17, %17
  ret void

20:                                               ; preds = %17
  unreachable
}