; Function Attrs: nounwind uwtable
define void @Aig_RManQuit() local_unnamed_addr #0 {
  %1 = alloca [20 x i8], align 16
  call void @llvm.lifetime.start.p0(i64 20, ptr nonnull %1) #16
  %2 = load ptr, ptr @s_pRMan, align 8, !tbaa !42
  %3 = icmp eq ptr %2, null
  br i1 %3, label %11, label %4

4:                                                ; preds = %0
  %5 = load i32, ptr %2, align 8, !tbaa !3
  %6 = call i32 (ptr, ptr, ...) @sprintf(ptr noundef nonnull dereferenceable(1) %1, ptr noundef nonnull dereferenceable(1) @.str.8, i32 noundef %5) #16
  %7 = load ptr, ptr @s_pRMan, align 8, !tbaa !42
  %8 = getelementptr inbounds nuw i8, ptr %7, i64 8
  %9 = load ptr, ptr %8, align 8, !tbaa !13
  call void @Ioa_WriteAiger(ptr noundef %9, ptr noundef nonnull %1, i32 noundef 0, i32 noundef 1) #16
  %10 = load ptr, ptr @s_pRMan, align 8, !tbaa !42
  call void @Aig_RManStop(ptr noundef %10)
  store ptr null, ptr @s_pRMan, align 8, !tbaa !42
  br label %11

11:                                               ; preds = %0, %4
  call void @llvm.lifetime.end.p0(i64 20, ptr nonnull %1) #16
  ret void
}